(dp0
S'a'
p1
ccopy_reg
_reconstructor
p2
(c__main__
Url
p3
c__builtin__
object
p4
Ntp5
Rp6
(dp7
S'short_url'
p8
g1
sS'full_url'
p9
S'http://www.packtpub.com'
p10
sbsS'c'
p11
g2
(g3
g4
Ntp12
Rp13
(dp14
g8
g11
sg9
S'http://www.gmail.com'
p15
sbsS'b'
p16
g2
(g3
g4
Ntp17
Rp18
(dp19
g8
g16
sg9
S'http://www.google.com'
p20
sbs.